cnumpy.core.multiarray
_reconstruct
p0
(cnumpy
ndarray
p1
(I0
tp2
c_codecs
encode
p3
(Vb
p4
Vlatin1
p5
tp6
Rp7
tp8
Rp9
(I1
(I900
tp10
cnumpy
dtype
p11
(VO8
p12
I0
I1
tp13
Rp14
(I3
V|
p15
NNNI-1
I-1
I63
tp16
bI00
(lp17
Vfoo
p18
aVbar
p19
aVbaz
p20
ag18
ag19
ag20
ag18
ag19
ag20
ag18
ag19
ag20
ag18
ag19
ag20
ag18
ag19
ag20
ag18
ag19
ag20
ag18
ag19
ag20
ag18
ag19
ag20
ag18
ag19
ag20
ag18
ag19
ag20
ag18
ag19
ag20
ag18
ag19
ag20
ag18
ag19
ag20
ag18
ag19
ag20
ag18
ag19
ag20
ag18
ag19
ag20
ag18
ag19
ag20
ag18
ag19
ag20
ag18
ag19
ag20
ag18
ag19
ag20
ag18
ag19
ag20
ag18
ag19
ag20
ag18
ag19
ag20
ag18
ag19
ag20
ag18
ag19
ag20
ag18
ag19
ag20
ag18
ag19
ag20
ag18
ag19
ag20
ag18
ag19
ag20
ag18
ag19
ag20
ag18
ag19
ag20
ag18
ag19
ag20
ag18
ag19
ag20
ag18
ag19
ag20
ag18
ag19
ag20
ag18
ag19
ag20
ag18
ag19
ag20
ag18
ag19
ag20
ag18
ag19
ag20
ag18
ag19
ag20
ag18
ag19
ag20
ag18
ag19
ag20
ag18
ag19
ag20
ag18
ag19
ag20
ag18
ag19
ag20
ag18
ag19
ag20
ag18
ag19
ag20
ag18
ag19
ag20
ag18
ag19
ag20
ag18
ag19
ag20
ag18
ag19
ag20
ag18
ag19
ag20
ag18
ag19
ag20
ag18
ag19
ag20
ag18
ag19
ag20
ag18
ag19
ag20
ag18
ag19
ag20
ag18
ag19
ag20
ag18
ag19
ag20
ag18
ag19
ag20
ag18
ag19
ag20
ag18
ag19
ag20
ag18
ag19
ag20
ag18
ag19
ag20
ag18
ag19
ag20
ag18
ag19
ag20
ag18
ag19
ag20
ag18
ag19
ag20
ag18
ag19
ag20
ag18
ag19
ag20
ag18
ag19
ag20
ag18
ag19
ag20
ag18
ag19
ag20
ag18
ag19
ag20
ag18
ag19
ag20
ag18
ag19
ag20
ag18
ag19
ag20
ag18
ag19
ag20
ag18
ag19
ag20
ag18
ag19
ag20
ag18
ag19
ag20
ag18
ag19
ag20
ag18
ag19
ag20
ag18
ag19
ag20
ag18
ag19
ag20
ag18
ag19
ag20
ag18
ag19
ag20
ag18
ag19
ag20
ag18
ag19
ag20
ag18
ag19
ag20
ag18
ag19
ag20
ag18
ag19
ag20
ag18
ag19
ag20
ag18
ag19
ag20
ag18
ag19
ag20
ag18
ag19
ag20
ag18
ag19
ag20
ag18
ag19
ag20
ag18
ag19
ag20
ag18
ag19
ag20
ag18
ag19
ag20
ag18
ag19
ag20
ag18
ag19
ag20
ag18
ag19
ag20
ag18
ag19
ag20
ag18
ag19
ag20
ag18
ag19
ag20
ag18
ag19
ag20
ag18
ag19
ag20
ag18
ag19
ag20
ag18
ag19
ag20
ag18
ag19
ag20
ag18
ag19
ag20
ag18
ag19
ag20
ag18
ag19
ag20
ag18
ag19
ag20
ag18
ag19
ag20
ag18
ag19
ag20
ag18
ag19
ag20
ag18
ag19
ag20
ag18
ag19
ag20
ag18
ag19
ag20
ag18
ag19
ag20
ag18
ag19
ag20
ag18
ag19
ag20
ag18
ag19
ag20
ag18
ag19
ag20
ag18
ag19
ag20
ag18
ag19
ag20
ag18
ag19
ag20
ag18
ag19
ag20
ag18
ag19
ag20
ag18
ag19
ag20
ag18
ag19
ag20
ag18
ag19
ag20
ag18
ag19
ag20
ag18
ag19
ag20
ag18
ag19
ag20
ag18
ag19
ag20
ag18
ag19
ag20
ag18
ag19
ag20
ag18
ag19
ag20
ag18
ag19
ag20
ag18
ag19
ag20
ag18
ag19
ag20
ag18
ag19
ag20
ag18
ag19
ag20
ag18
ag19
ag20
ag18
ag19
ag20
ag18
ag19
ag20
ag18
ag19
ag20
ag18
ag19
ag20
ag18
ag19
ag20
ag18
ag19
ag20
ag18
ag19
ag20
ag18
ag19
ag20
ag18
ag19
ag20
ag18
ag19
ag20
ag18
ag19
ag20
ag18
ag19
ag20
ag18
ag19
ag20
ag18
ag19
ag20
ag18
ag19
ag20
ag18
ag19
ag20
ag18
ag19
ag20
ag18
ag19
ag20
ag18
ag19
ag20
ag18
ag19
ag20
ag18
ag19
ag20
ag18
ag19
ag20
ag18
ag19
ag20
ag18
ag19
ag20
ag18
ag19
ag20
ag18
ag19
ag20
ag18
ag19
ag20
ag18
ag19
ag20
ag18
ag19
ag20
ag18
ag19
ag20
ag18
ag19
ag20
ag18
ag19
ag20
ag18
ag19
ag20
ag18
ag19
ag20
ag18
ag19
ag20
ag18
ag19
ag20
ag18
ag19
ag20
ag18
ag19
ag20
ag18
ag19
ag20
ag18
ag19
ag20
ag18
ag19
ag20
ag18
ag19
ag20
ag18
ag19
ag20
ag18
ag19
ag20
ag18
ag19
ag20
ag18
ag19
ag20
ag18
ag19
ag20
ag18
ag19
ag20
ag18
ag19
ag20
ag18
ag19
ag20
ag18
ag19
ag20
ag18
ag19
ag20
ag18
ag19
ag20
ag18
ag19
ag20
ag18
ag19
ag20
ag18
ag19
ag20
ag18
ag19
ag20
ag18
ag19
ag20
ag18
ag19
ag20
ag18
ag19
ag20
ag18
ag19
ag20
ag18
ag19
ag20
ag18
ag19
ag20
ag18
ag19
ag20
ag18
ag19
ag20
ag18
ag19
ag20
ag18
ag19
ag20
ag18
ag19
ag20
ag18
ag19
ag20
ag18
ag19
ag20
ag18
ag19
ag20
ag18
ag19
ag20
ag18
ag19
ag20
ag18
ag19
ag20
ag18
ag19
ag20
ag18
ag19
ag20
ag18
ag19
ag20
ag18
ag19
ag20
ag18
ag19
ag20
ag18
ag19
ag20
ag18
ag19
ag20
ag18
ag19
ag20
ag18
ag19
ag20
ag18
ag19
ag20
ag18
ag19
ag20
ag18
ag19
ag20
ag18
ag19
ag20
ag18
ag19
ag20
ag18
ag19
ag20
ag18
ag19
ag20
ag18
ag19
ag20
ag18
ag19
ag20
ag18
ag19
ag20
ag18
ag19
ag20
ag18
ag19
ag20
ag18
ag19
ag20
ag18
ag19
ag20
ag18
ag19
ag20
ag18
ag19
ag20
ag18
ag19
ag20
ag18
ag19
ag20
ag18
ag19
ag20
ag18
ag19
ag20
ag18
ag19
ag20
ag18
ag19
ag20
ag18
ag19
ag20
ag18
ag19
ag20
ag18
ag19
ag20
ag18
ag19
ag20
ag18
ag19
ag20
ag18
ag19
ag20
ag18
ag19
ag20
ag18
ag19
ag20
ag18
ag19
ag20
ag18
ag19
ag20
ag18
ag19
ag20
ag18
ag19
ag20
ag18
ag19
ag20
ag18
ag19
ag20
ag18
ag19
ag20
ag18
ag19
ag20
ag18
ag19
ag20
ag18
ag19
ag20
ag18
ag19
ag20
ag18
ag19
ag20
ag18
ag19
ag20
ag18
ag19
ag20
ag18
ag19
ag20
ag18
ag19
ag20
ag18
ag19
ag20
ag18
ag19
ag20
ag18
ag19
ag20
ag18
ag19
ag20
ag18
ag19
ag20
ag18
ag19
ag20
ag18
ag19
ag20
ag18
ag19
ag20
ag18
ag19
ag20
ag18
ag19
ag20
ag18
ag19
ag20
ag18
ag19
ag20
ag18
ag19
ag20
ag18
ag19
ag20
ag18
ag19
ag20
ag18
ag19
ag20
ag18
ag19
ag20
ag18
ag19
ag20
ag18
ag19
ag20
ag18
ag19
ag20
ag18
ag19
ag20
ag18
ag19
ag20
atp21
b.